; Function Attrs: mustprogress uwtable
define void @_ZN3gmx20AbstractAnalysisDataC2Ev(ptr noundef nonnull writeonly align 8 captures(none) dereferenceable(16) initializes((0, 8)) %0) unnamed_addr #1 align 2 personality ptr @__gxx_personality_v0 {
  store ptr getelementptr inbounds nuw inrange(-16, 40) (i8, ptr @_ZTVN3gmx20AbstractAnalysisDataE, i64 16), ptr %0, align 8, !tbaa !14
  %2 = tail call noalias noundef nonnull dereferenceable(40) ptr @_Znwm(i64 noundef 40) #25
  invoke void @_ZN3gmx20AbstractAnalysisData4ImplC1Ev(ptr noundef nonnull align 8 dereferenceable(40) %2)
          to label %3 unwind label %5

3:                                                ; preds = %1
  %4 = getelementptr inbounds nuw i8, ptr %0, i64 8
  store ptr %2, ptr %4, align 8, !tbaa !16
  ret void

5:                                                ; preds = %1
  %6 = landingpad { ptr, i32 }
          cleanup
  tail call void @_ZdlPvm(ptr noundef nonnull %2, i64 noundef 40) #26
  resume { ptr, i32 } %6
}